target datalayout = "e-m:e-p270:32:32-p271:32:32-p272:64:64-i64:64-i128:128-f80:128-n8:16:32:64-S128"
target triple = "x86_64-pc-linux-gnu"

%"class.nanogui::Texture" = type { %"class.nanogui::Object.base", i8, i8, i8, i8, i8, i8, i8, %"struct.nanogui::Array", i8, i32, i32 }
%"class.nanogui::Object.base" = type <{ ptr, %"struct.std::atomic" }>
%"struct.std::atomic" = type { %"struct.std::__atomic_base" }
%"struct.std::__atomic_base" = type { i32 }
%"struct.nanogui::Array" = type { [2 x i32] }

@_ZTISt13runtime_error = external constant ptr
@.str.4 = private unnamed_addr constant [62 x i8] c"Texture::upload_sub_region(): only implemented for samples=1!\00", align 1
@.str.5 = private unnamed_addr constant [66 x i8] c"Texture::upload_sub_region(): not implemented for render targets!\00", align 1
@.str.6 = private unnamed_addr constant [45 x i8] c"Texture::upload_sub_region(): out of bounds!\00", align 1

; Function Attrs: mustprogress uwtable
define hidden void @_ZN7nanogui7Texture15generate_mipmapEv(ptr noundef nonnull align 8 dereferenceable(40) %0) #0 align 2 {
  %2 = alloca ptr, align 8
  %3 = alloca i32, align 4
  store ptr %0, ptr %2, align 8
  %4 = load ptr, ptr %2, align 8
  %5 = getelementptr inbounds %"class.nanogui::Texture", ptr %4, i32 0, i32 6
  %6 = load i8, ptr %5, align 1
  %7 = zext i8 %6 to i32
  %8 = icmp sgt i32 %7, 1
  %9 = select i1 %8, i32 37120, i32 3553
  store i32 %9, ptr %3, align 4
  %10 = load i32, ptr %3, align 4
  %11 = getelementptr inbounds %"class.nanogui::Texture", ptr %4, i32 0, i32 10
  %12 = load i32, ptr %11, align 8
  call void @glBindTexture(i32 noundef %10, i32 noundef %12)
  %13 = load i32, ptr %3, align 4
  call void @glGenerateMipmap(i32 noundef %13)
  ret void
}

; Function Attrs: mustprogress nounwind uwtable
define linkonce_odr hidden noundef nonnull align 4 dereferenceable(4) ptr @_ZN7nanogui5ArrayIiLm2EE1yILm2ETnNSt9enable_ifIXgeT_Li2EEiE4typeELi0EEERiv(ptr noundef nonnull align 4 dereferenceable(8) %0) #3 comdat align 2 {
  %2 = alloca ptr, align 8
  store ptr %0, ptr %2, align 8
  %3 = load ptr, ptr %2, align 8
  %4 = getelementptr inbounds %"struct.nanogui::Array", ptr %3, i32 0, i32 0
  %5 = getelementptr inbounds [2 x i32], ptr %4, i64 0, i64 1
  ret ptr %5
}

; Function Attrs: mustprogress nounwind uwtable
define linkonce_odr hidden noundef nonnull align 4 dereferenceable(4) ptr @_ZNK7nanogui5ArrayIiLm2EE1yILm2ETnNSt9enable_ifIXgeT_Li2EEiE4typeELi0EEERKiv(ptr noundef nonnull align 4 dereferenceable(8) %0) #3 comdat align 2 {
  %2 = alloca ptr, align 8
  store ptr %0, ptr %2, align 8
  %3 = load ptr, ptr %2, align 8
  %4 = getelementptr inbounds %"struct.nanogui::Array", ptr %3, i32 0, i32 0
  %5 = getelementptr inbounds [2 x i32], ptr %4, i64 0, i64 1
  ret ptr %5
}

; Function Attrs: mustprogress nounwind uwtable
define linkonce_odr hidden noundef nonnull align 4 dereferenceable(4) ptr @_ZN7nanogui5ArrayIiLm2EE1xILm2ETnNSt9enable_ifIXgeT_Li1EEiE4typeELi0EEERiv(ptr noundef nonnull align 4 dereferenceable(8) %0) #3 comdat align 2 {
  %2 = alloca ptr, align 8
  store ptr %0, ptr %2, align 8
  %3 = load ptr, ptr %2, align 8
  %4 = getelementptr inbounds %"struct.nanogui::Array", ptr %3, i32 0, i32 0
  %5 = getelementptr inbounds [2 x i32], ptr %4, i64 0, i64 0
  ret ptr %5
}

; Function Attrs: mustprogress nounwind uwtable
define linkonce_odr hidden noundef nonnull align 4 dereferenceable(4) ptr @_ZNK7nanogui5ArrayIiLm2EE1xILm2ETnNSt9enable_ifIXgeT_Li1EEiE4typeELi0EEERKiv(ptr noundef nonnull align 4 dereferenceable(8) %0) #3 comdat align 2 {
  %2 = alloca ptr, align 8
  store ptr %0, ptr %2, align 8
  %3 = load ptr, ptr %2, align 8
  %4 = getelementptr inbounds %"struct.nanogui::Array", ptr %3, i32 0, i32 0
  %5 = getelementptr inbounds [2 x i32], ptr %4, i64 0, i64 0
  ret ptr %5
}

; Function Attrs: mustprogress uwtable
define hidden void @_ZN7nanogui7Texture17upload_sub_regionEPKhRKNS_5ArrayIiLm2EEES6_(ptr noundef nonnull align 8 dereferenceable(40) %0, ptr noundef %1, ptr noundef nonnull align 4 dereferenceable(8) %2, ptr noundef nonnull align 4 dereferenceable(8) %3) #0 align 2 personality ptr @__gxx_personality_v0 {
  %5 = alloca ptr, align 8
  %6 = alloca ptr, align 8
  %7 = alloca ptr, align 8
  %8 = alloca ptr, align 8
  %9 = alloca ptr, align 8
  %10 = alloca i32, align 4
  %11 = alloca i32, align 4
  %12 = alloca i32, align 4
  %13 = alloca i32, align 4
  %14 = alloca i32, align 4
  store ptr %0, ptr %5, align 8
  store ptr %1, ptr %6, align 8
  store ptr %2, ptr %7, align 8
  store ptr %3, ptr %8, align 8
  %15 = load ptr, ptr %5, align 8
  %16 = getelementptr inbounds %"class.nanogui::Texture", ptr %15, i32 0, i32 6
  %17 = load i8, ptr %16, align 1
  %18 = zext i8 %17 to i32
  %19 = icmp sgt i32 %18, 1
  br i1 %19, label %20, label %30

20:                                               ; preds = %4
  %21 = load ptr, ptr %6, align 8
  %22 = icmp ne ptr %21, null
  br i1 %22, label %23, label %30

23:                                               ; preds = %20
  %24 = call ptr @__cxa_allocate_exception(i64 16) #8
  invoke void @_ZNSt13runtime_errorC1EPKc(ptr noundef nonnull align 8 dereferenceable(16) %24, ptr noundef @.str.4)
          to label %25 unwind label %26

25:                                               ; preds = %23
  call void @__cxa_throw(ptr %24, ptr @_ZTISt13runtime_error, ptr @_ZNSt13runtime_errorD1Ev) #9
  unreachable

26:                                               ; preds = %23
  %27 = landingpad { ptr, i32 }
          cleanup
  %28 = extractvalue { ptr, i32 } %27, 0
  store ptr %28, ptr %9, align 8
  %29 = extractvalue { ptr, i32 } %27, 1
  store i32 %29, ptr %10, align 4
  call void @__cxa_free_exception(ptr %24) #8
  br label %120

30:                                               ; preds = %20, %4
  %31 = getelementptr inbounds %"class.nanogui::Texture", ptr %15, i32 0, i32 1
  %32 = getelementptr inbounds %"class.nanogui::Texture", ptr %15, i32 0, i32 2
  call void @_ZN7nanoguiL21gl_map_texture_formatERNS_7Texture11PixelFormatERNS0_15ComponentFormatERjS5_S5_(ptr noundef nonnull align 1 dereferenceable(1) %31, ptr noundef nonnull align 1 dereferenceable(1) %32, ptr noundef nonnull align 4 dereferenceable(4) %11, ptr noundef nonnull align 4 dereferenceable(4) %12, ptr noundef nonnull align 4 dereferenceable(4) %13)
  %33 = getelementptr inbounds %"class.nanogui::Texture", ptr %15, i32 0, i32 10
  %34 = load i32, ptr %33, align 8
  %35 = icmp eq i32 %34, 0
  br i1 %35, label %36, label %43

36:                                               ; preds = %30
  %37 = call ptr @__cxa_allocate_exception(i64 16) #8
  invoke void @_ZNSt13runtime_errorC1EPKc(ptr noundef nonnull align 8 dereferenceable(16) %37, ptr noundef @.str.5)
          to label %38 unwind label %39

38:                                               ; preds = %36
  call void @__cxa_throw(ptr %37, ptr @_ZTISt13runtime_error, ptr @_ZNSt13runtime_errorD1Ev) #9
  unreachable

39:                                               ; preds = %36
  %40 = landingpad { ptr, i32 }
          cleanup
  %41 = extractvalue { ptr, i32 } %40, 0
  store ptr %41, ptr %9, align 8
  %42 = extractvalue { ptr, i32 } %40, 1
  store i32 %42, ptr %10, align 4
  call void @__cxa_free_exception(ptr %37) #8
  br label %120

43:                                               ; preds = %30
  %44 = load ptr, ptr %7, align 8
  %45 = call noundef nonnull align 4 dereferenceable(4) ptr @_ZNK7nanogui5ArrayIiLm2EE1xILm2ETnNSt9enable_ifIXgeT_Li1EEiE4typeELi0EEERKiv(ptr noundef nonnull align 4 dereferenceable(8) %44)
  %46 = load i32, ptr %45, align 4
  %47 = load ptr, ptr %8, align 8
  %48 = call noundef nonnull align 4 dereferenceable(4) ptr @_ZNK7nanogui5ArrayIiLm2EE1xILm2ETnNSt9enable_ifIXgeT_Li1EEiE4typeELi0EEERKiv(ptr noundef nonnull align 4 dereferenceable(8) %47)
  %49 = load i32, ptr %48, align 4
  %50 = add nsw i32 %46, %49
  %51 = getelementptr inbounds %"class.nanogui::Texture", ptr %15, i32 0, i32 8
  %52 = call noundef nonnull align 4 dereferenceable(4) ptr @_ZN7nanogui5ArrayIiLm2EE1xILm2ETnNSt9enable_ifIXgeT_Li1EEiE4typeELi0EEERiv(ptr noundef nonnull align 4 dereferenceable(8) %51)
  %53 = load i32, ptr %52, align 4
  %54 = icmp sgt i32 %50, %53
  br i1 %54, label %67, label %55

55:                                               ; preds = %43
  %56 = load ptr, ptr %7, align 8
  %57 = call noundef nonnull align 4 dereferenceable(4) ptr @_ZNK7nanogui5ArrayIiLm2EE1yILm2ETnNSt9enable_ifIXgeT_Li2EEiE4typeELi0EEERKiv(ptr noundef nonnull align 4 dereferenceable(8) %56)
  %58 = load i32, ptr %57, align 4
  %59 = load ptr, ptr %8, align 8
  %60 = call noundef nonnull align 4 dereferenceable(4) ptr @_ZNK7nanogui5ArrayIiLm2EE1yILm2ETnNSt9enable_ifIXgeT_Li2EEiE4typeELi0EEERKiv(ptr noundef nonnull align 4 dereferenceable(8) %59)
  %61 = load i32, ptr %60, align 4
  %62 = add nsw i32 %58, %61
  %63 = getelementptr inbounds %"class.nanogui::Texture", ptr %15, i32 0, i32 8
  %64 = call noundef nonnull align 4 dereferenceable(4) ptr @_ZN7nanogui5ArrayIiLm2EE1yILm2ETnNSt9enable_ifIXgeT_Li2EEiE4typeELi0EEERiv(ptr noundef nonnull align 4 dereferenceable(8) %63)
  %65 = load i32, ptr %64, align 4
  %66 = icmp sgt i32 %62, %65
  br i1 %66, label %67, label %74

67:                                               ; preds = %55, %43
  %68 = call ptr @__cxa_allocate_exception(i64 16) #8
  invoke void @_ZNSt13runtime_errorC1EPKc(ptr noundef nonnull align 8 dereferenceable(16) %68, ptr noundef @.str.6)
          to label %69 unwind label %70

69:                                               ; preds = %67
  call void @__cxa_throw(ptr %68, ptr @_ZTISt13runtime_error, ptr @_ZNSt13runtime_errorD1Ev) #9
  unreachable

70:                                               ; preds = %67
  %71 = landingpad { ptr, i32 }
          cleanup
  %72 = extractvalue { ptr, i32 } %71, 0
  store ptr %72, ptr %9, align 8
  %73 = extractvalue { ptr, i32 } %71, 1
  store i32 %73, ptr %10, align 4
  call void @__cxa_free_exception(ptr %68) #8
  br label %120

74:                                               ; preds = %55
  %75 = getelementptr inbounds %"class.nanogui::Texture", ptr %15, i32 0, i32 6
  %76 = load i8, ptr %75, align 1
  %77 = zext i8 %76 to i32
  %78 = icmp sgt i32 %77, 1
  %79 = select i1 %78, i32 37120, i32 3553
  store i32 %79, ptr %14, align 4
  %80 = load i32, ptr %14, align 4
  %81 = getelementptr inbounds %"class.nanogui::Texture", ptr %15, i32 0, i32 10
  %82 = load i32, ptr %81, align 8
  call void @glBindTexture(i32 noundef %80, i32 noundef %82)
  %83 = load ptr, ptr %6, align 8
  %84 = icmp ne ptr %83, null
  br i1 %84, label %85, label %86

85:                                               ; preds = %74
  call void @glPixelStorei(i32 noundef 3317, i32 noundef 1)
  br label %86

86:                                               ; preds = %85, %74
  %87 = load ptr, ptr %6, align 8
  %88 = icmp ne ptr %87, null
  br i1 %88, label %89, label %90

89:                                               ; preds = %86
  call void @glPixelStorei(i32 noundef 3314, i32 noundef 0)
  call void @glPixelStorei(i32 noundef 3315, i32 noundef 0)
  call void @glPixelStorei(i32 noundef 3316, i32 noundef 0)
  br label %90

90:                                               ; preds = %89, %86
  %91 = load i32, ptr %14, align 4
  %92 = load ptr, ptr %7, align 8
  %93 = call noundef nonnull align 4 dereferenceable(4) ptr @_ZNK7nanogui5ArrayIiLm2EE1xILm2ETnNSt9enable_ifIXgeT_Li1EEiE4typeELi0EEERKiv(ptr noundef nonnull align 4 dereferenceable(8) %92)
  %94 = load i32, ptr %93, align 4
  %95 = load ptr, ptr %7, align 8
  %96 = call noundef nonnull align 4 dereferenceable(4) ptr @_ZNK7nanogui5ArrayIiLm2EE1yILm2ETnNSt9enable_ifIXgeT_Li2EEiE4typeELi0EEERKiv(ptr noundef nonnull align 4 dereferenceable(8) %95)
  %97 = load i32, ptr %96, align 4
  %98 = load ptr, ptr %8, align 8
  %99 = call noundef nonnull align 4 dereferenceable(4) ptr @_ZNK7nanogui5ArrayIiLm2EE1xILm2ETnNSt9enable_ifIXgeT_Li1EEiE4typeELi0EEERKiv(ptr noundef nonnull align 4 dereferenceable(8) %98)
  %100 = load i32, ptr %99, align 4
  %101 = load ptr, ptr %8, align 8
  %102 = call noundef nonnull align 4 dereferenceable(4) ptr @_ZNK7nanogui5ArrayIiLm2EE1yILm2ETnNSt9enable_ifIXgeT_Li2EEiE4typeELi0EEERKiv(ptr noundef nonnull align 4 dereferenceable(8) %101)
  %103 = load i32, ptr %102, align 4
  %104 = load i32, ptr %11, align 4
  %105 = load i32, ptr %12, align 4
  %106 = load ptr, ptr %6, align 8
  call void @glTexSubImage2D(i32 noundef %91, i32 noundef 0, i32 noundef %94, i32 noundef %97, i32 noundef %100, i32 noundef %103, i32 noundef %104, i32 noundef %105, ptr noundef %106)
  %107 = getelementptr inbounds %"class.nanogui::Texture", ptr %15, i32 0, i32 9
  %108 = load i8, ptr %107, align 4
  %109 = trunc i8 %108 to i1
  br i1 %109, label %119, label %110

110:                                              ; preds = %90
  %111 = getelementptr inbounds %"class.nanogui::Texture", ptr %15, i32 0, i32 3
  %112 = load i8, ptr %111, align 2
  %113 = icmp eq i8 %112, 2
  br i1 %113, label %118, label %114

114:                                              ; preds = %110
  %115 = getelementptr inbounds %"class.nanogui::Texture", ptr %15, i32 0, i32 4
  %116 = load i8, ptr %115, align 1
  %117 = icmp eq i8 %116, 2
  br i1 %117, label %118, label %119

118:                                              ; preds = %114, %110
  call void @_ZN7nanogui7Texture15generate_mipmapEv(ptr noundef nonnull align 8 dereferenceable(40) %15)
  br label %119

119:                                              ; preds = %118, %114, %90
  ret void

120:                                              ; preds = %70, %39, %26
  %121 = load ptr, ptr %9, align 8
  %122 = load i32, ptr %10, align 4
  %123 = insertvalue { ptr, i32 } poison, ptr %121, 0
  %124 = insertvalue { ptr, i32 } %123, i32 %122, 1
  resume { ptr, i32 } %124
}