; Function Attrs: mustprogress uwtable
define hidden void @_ZN7nanogui7Texture17upload_sub_regionEPKhRKNS_5ArrayIiLm2EEES6_(ptr nocapture noundef nonnull align 8 dereferenceable(40) %0, ptr noundef %1, ptr nocapture noundef nonnull readonly align 4 dereferenceable(8) %2, ptr nocapture noundef nonnull readonly align 4 dereferenceable(8) %3) local_unnamed_addr #0 align 2 personality ptr @__gxx_personality_v0 {
  %5 = alloca i32, align 4
  %6 = alloca i32, align 4
  %7 = alloca i32, align 4
  %8 = getelementptr inbounds i8, ptr %0, i64 17
  %9 = load i8, ptr %8, align 1
  %10 = icmp ugt i8 %9, 1
  %11 = icmp ne ptr %1, null
  %or.cond = and i1 %11, %10
  br i1 %or.cond, label %12, label %17

12:                                               ; preds = %4
  %13 = tail call ptr @__cxa_allocate_exception(i64 16) #8
  invoke void @_ZNSt13runtime_errorC1EPKc(ptr noundef nonnull align 8 dereferenceable(16) %13, ptr noundef nonnull @.str.4)
          to label %14 unwind label %15

14:                                               ; preds = %12
  tail call void @__cxa_throw(ptr nonnull %13, ptr nonnull @_ZTISt13runtime_error, ptr nonnull @_ZNSt13runtime_errorD1Ev) #9
  unreachable

15:                                               ; preds = %12
  %16 = landingpad { ptr, i32 }
          cleanup
  br label %76

17:                                               ; preds = %4
  %18 = getelementptr inbounds i8, ptr %0, i64 12
  %19 = getelementptr inbounds i8, ptr %0, i64 13
  call fastcc void @_ZN7nanoguiL21gl_map_texture_formatERNS_7Texture11PixelFormatERNS0_15ComponentFormatERjS5_S5_(ptr noundef nonnull align 1 dereferenceable(1) %18, ptr noundef nonnull align 1 dereferenceable(1) %19, ptr noundef nonnull align 4 dereferenceable(4) %5, ptr noundef nonnull align 4 dereferenceable(4) %6, ptr noundef nonnull align 4 dereferenceable(4) %7)
  %20 = getelementptr inbounds i8, ptr %0, i64 32
  %21 = load i32, ptr %20, align 8
  %22 = icmp eq i32 %21, 0
  br i1 %22, label %23, label %28

23:                                               ; preds = %17
  %24 = tail call ptr @__cxa_allocate_exception(i64 16) #8
  invoke void @_ZNSt13runtime_errorC1EPKc(ptr noundef nonnull align 8 dereferenceable(16) %24, ptr noundef nonnull @.str.5)
          to label %25 unwind label %26

25:                                               ; preds = %23
  tail call void @__cxa_throw(ptr nonnull %24, ptr nonnull @_ZTISt13runtime_error, ptr nonnull @_ZNSt13runtime_errorD1Ev) #9
  unreachable

26:                                               ; preds = %23
  %27 = landingpad { ptr, i32 }
          cleanup
  br label %76

28:                                               ; preds = %17
  %29 = load i32, ptr %2, align 4
  %30 = load i32, ptr %3, align 4
  %31 = add nsw i32 %30, %29
  %32 = getelementptr inbounds i8, ptr %0, i64 20
  %33 = load i32, ptr %32, align 4
  %34 = icmp sgt i32 %31, %33
  br i1 %34, label %44, label %35

35:                                               ; preds = %28
  %36 = getelementptr inbounds i8, ptr %2, i64 4
  %37 = load i32, ptr %36, align 4
  %38 = getelementptr inbounds i8, ptr %3, i64 4
  %39 = load i32, ptr %38, align 4
  %40 = add nsw i32 %39, %37
  %41 = getelementptr inbounds i8, ptr %0, i64 24
  %42 = load i32, ptr %41, align 8
  %43 = icmp sgt i32 %40, %42
  br i1 %43, label %44, label %49

44:                                               ; preds = %35, %28
  %45 = tail call ptr @__cxa_allocate_exception(i64 16) #8
  invoke void @_ZNSt13runtime_errorC1EPKc(ptr noundef nonnull align 8 dereferenceable(16) %45, ptr noundef nonnull @.str.6)
          to label %46 unwind label %47

46:                                               ; preds = %44
  tail call void @__cxa_throw(ptr nonnull %45, ptr nonnull @_ZTISt13runtime_error, ptr nonnull @_ZNSt13runtime_errorD1Ev) #9
  unreachable

47:                                               ; preds = %44
  %48 = landingpad { ptr, i32 }
          cleanup
  br label %76

49:                                               ; preds = %35
  %50 = load i8, ptr %8, align 1
  %51 = icmp ugt i8 %50, 1
  %52 = select i1 %51, i32 37120, i32 3553
  tail call void @glBindTexture(i32 noundef %52, i32 noundef %21)
  br i1 %11, label %53, label %.critedge

53:                                               ; preds = %49
  tail call void @glPixelStorei(i32 noundef 3317, i32 noundef 1)
  tail call void @glPixelStorei(i32 noundef 3314, i32 noundef 0)
  tail call void @glPixelStorei(i32 noundef 3315, i32 noundef 0)
  tail call void @glPixelStorei(i32 noundef 3316, i32 noundef 0)
  br label %.critedge

.critedge:                                        ; preds = %49, %53
  %54 = load i32, ptr %2, align 4
  %55 = load i32, ptr %36, align 4
  %56 = load i32, ptr %3, align 4
  %57 = load i32, ptr %38, align 4
  %58 = load i32, ptr %5, align 4
  %59 = load i32, ptr %6, align 4
  tail call void @glTexSubImage2D(i32 noundef %52, i32 noundef 0, i32 noundef %54, i32 noundef %55, i32 noundef %56, i32 noundef %57, i32 noundef %58, i32 noundef %59, ptr noundef %1)
  %60 = getelementptr inbounds i8, ptr %0, i64 28
  %61 = load i8, ptr %60, align 4
  %62 = and i8 %61, 1
  %.not = icmp eq i8 %62, 0
  br i1 %.not, label %63, label %75

63:                                               ; preds = %.critedge
  %64 = getelementptr inbounds i8, ptr %0, i64 14
  %65 = load i8, ptr %64, align 2
  %66 = icmp eq i8 %65, 2
  %67 = getelementptr inbounds i8, ptr %0, i64 15
  %68 = load i8, ptr %67, align 1
  %69 = icmp eq i8 %68, 2
  %or.cond21 = select i1 %66, i1 true, i1 %69
  br i1 %or.cond21, label %70, label %75

70:                                               ; preds = %63
  %71 = load i8, ptr %8, align 1
  %72 = icmp ugt i8 %71, 1
  %73 = select i1 %72, i32 37120, i32 3553
  %74 = load i32, ptr %20, align 8
  tail call void @glBindTexture(i32 noundef %73, i32 noundef %74)
  tail call void @glGenerateMipmap(i32 noundef %73)
  br label %75

75:                                               ; preds = %63, %70, %.critedge
  ret void

76:                                               ; preds = %47, %26, %15
  %.sink = phi ptr [ %45, %47 ], [ %24, %26 ], [ %13, %15 ]
  %.pn = phi { ptr, i32 } [ %48, %47 ], [ %27, %26 ], [ %16, %15 ]
  tail call void @__cxa_free_exception(ptr %.sink) #8
  resume { ptr, i32 } %.pn
}